target datalayout = "e-m:e-p270:32:32-p271:32:32-p272:64:64-i64:64-i128:128-f80:128-n8:16:32:64-S128"
target triple = "x86_64-pc-linux-gnu"

@hf_infiniband_NodeInfo_BaseVersion = internal global i32 0, align 4
@hf_infiniband_NodeInfo_ClassVersion = internal global i32 0, align 4
@hf_infiniband_NodeInfo_NodeType = internal global i32 0, align 4
@hf_infiniband_NodeInfo_NumPorts = internal global i32 0, align 4
@hf_infiniband_NodeInfo_SystemImageGUID = internal global i32 0, align 4
@hf_infiniband_NodeInfo_NodeGUID = internal global i32 0, align 4
@hf_infiniband_NodeInfo_PortGUID = internal global i32 0, align 4
@hf_infiniband_NodeInfo_PartitionCap = internal global i32 0, align 4
@hf_infiniband_NodeInfo_DeviceID = internal global i32 0, align 4
@hf_infiniband_NodeInfo_Revision = internal global i32 0, align 4
@hf_infiniband_NodeInfo_LocalPortNum = internal global i32 0, align 4
@hf_infiniband_NodeInfo_VendorID = internal global i32 0, align 4

; Function Attrs: null_pointer_is_valid sspstrong uwtable
define internal i32 @parse_NodeInfo(ptr noundef %0, ptr noundef %1, ptr noundef %2) #0 {
  %4 = alloca i32, align 4
  %5 = alloca ptr, align 8
  %6 = alloca ptr, align 8
  %7 = alloca ptr, align 8
  %8 = alloca i32, align 4
  %9 = alloca ptr, align 8
  %10 = alloca i32, align 4
  store ptr %0, ptr %5, align 8
  store ptr %1, ptr %6, align 8
  store ptr %2, ptr %7, align 8
  call void @llvm.lifetime.start.p0(i64 4, ptr %8) #18
  %11 = load ptr, ptr %7, align 8
  %12 = load i32, ptr %11, align 4
  store i32 %12, ptr %8, align 4
  call void @llvm.lifetime.start.p0(i64 8, ptr %9) #18
  %13 = load ptr, ptr %5, align 8
  %14 = icmp ne ptr %13, null
  br i1 %14, label %18, label %15

15:                                               ; preds = %3
  %16 = load ptr, ptr %7, align 8
  %17 = load i32, ptr %16, align 4
  store i32 %17, ptr %4, align 4
  store i32 1, ptr %10, align 4
  br label %105

18:                                               ; preds = %3
  %19 = load ptr, ptr %5, align 8
  store ptr %19, ptr %9, align 8
  %20 = load ptr, ptr %9, align 8
  %21 = load i32, ptr @hf_infiniband_NodeInfo_BaseVersion, align 4
  %22 = load ptr, ptr %6, align 8
  %23 = load i32, ptr %8, align 4
  %24 = call ptr @proto_tree_add_item(ptr noundef %20, i32 noundef %21, ptr noundef %22, i32 noundef %23, i32 noundef 1, i32 noundef 0)
  %25 = load i32, ptr %8, align 4
  %26 = add i32 %25, 1
  store i32 %26, ptr %8, align 4
  %27 = load ptr, ptr %9, align 8
  %28 = load i32, ptr @hf_infiniband_NodeInfo_ClassVersion, align 4
  %29 = load ptr, ptr %6, align 8
  %30 = load i32, ptr %8, align 4
  %31 = call ptr @proto_tree_add_item(ptr noundef %27, i32 noundef %28, ptr noundef %29, i32 noundef %30, i32 noundef 1, i32 noundef 0)
  %32 = load i32, ptr %8, align 4
  %33 = add i32 %32, 1
  store i32 %33, ptr %8, align 4
  %34 = load ptr, ptr %9, align 8
  %35 = load i32, ptr @hf_infiniband_NodeInfo_NodeType, align 4
  %36 = load ptr, ptr %6, align 8
  %37 = load i32, ptr %8, align 4
  %38 = call ptr @proto_tree_add_item(ptr noundef %34, i32 noundef %35, ptr noundef %36, i32 noundef %37, i32 noundef 1, i32 noundef 0)
  %39 = load i32, ptr %8, align 4
  %40 = add i32 %39, 1
  store i32 %40, ptr %8, align 4
  %41 = load ptr, ptr %9, align 8
  %42 = load i32, ptr @hf_infiniband_NodeInfo_NumPorts, align 4
  %43 = load ptr, ptr %6, align 8
  %44 = load i32, ptr %8, align 4
  %45 = call ptr @proto_tree_add_item(ptr noundef %41, i32 noundef %42, ptr noundef %43, i32 noundef %44, i32 noundef 1, i32 noundef 0)
  %46 = load i32, ptr %8, align 4
  %47 = add i32 %46, 1
  store i32 %47, ptr %8, align 4
  %48 = load ptr, ptr %9, align 8
  %49 = load i32, ptr @hf_infiniband_NodeInfo_SystemImageGUID, align 4
  %50 = load ptr, ptr %6, align 8
  %51 = load i32, ptr %8, align 4
  %52 = call ptr @proto_tree_add_item(ptr noundef %48, i32 noundef %49, ptr noundef %50, i32 noundef %51, i32 noundef 8, i32 noundef 0)
  %53 = load i32, ptr %8, align 4
  %54 = add i32 %53, 8
  store i32 %54, ptr %8, align 4
  %55 = load ptr, ptr %9, align 8
  %56 = load i32, ptr @hf_infiniband_NodeInfo_NodeGUID, align 4
  %57 = load ptr, ptr %6, align 8
  %58 = load i32, ptr %8, align 4
  %59 = call ptr @proto_tree_add_item(ptr noundef %55, i32 noundef %56, ptr noundef %57, i32 noundef %58, i32 noundef 8, i32 noundef 0)
  %60 = load i32, ptr %8, align 4
  %61 = add i32 %60, 8
  store i32 %61, ptr %8, align 4
  %62 = load ptr, ptr %9, align 8
  %63 = load i32, ptr @hf_infiniband_NodeInfo_PortGUID, align 4
  %64 = load ptr, ptr %6, align 8
  %65 = load i32, ptr %8, align 4
  %66 = call ptr @proto_tree_add_item(ptr noundef %62, i32 noundef %63, ptr noundef %64, i32 noundef %65, i32 noundef 8, i32 noundef 0)
  %67 = load i32, ptr %8, align 4
  %68 = add i32 %67, 8
  store i32 %68, ptr %8, align 4
  %69 = load ptr, ptr %9, align 8
  %70 = load i32, ptr @hf_infiniband_NodeInfo_PartitionCap, align 4
  %71 = load ptr, ptr %6, align 8
  %72 = load i32, ptr %8, align 4
  %73 = call ptr @proto_tree_add_item(ptr noundef %69, i32 noundef %70, ptr noundef %71, i32 noundef %72, i32 noundef 2, i32 noundef 0)
  %74 = load i32, ptr %8, align 4
  %75 = add i32 %74, 2
  store i32 %75, ptr %8, align 4
  %76 = load ptr, ptr %9, align 8
  %77 = load i32, ptr @hf_infiniband_NodeInfo_DeviceID, align 4
  %78 = load ptr, ptr %6, align 8
  %79 = load i32, ptr %8, align 4
  %80 = call ptr @proto_tree_add_item(ptr noundef %76, i32 noundef %77, ptr noundef %78, i32 noundef %79, i32 noundef 2, i32 noundef 0)
  %81 = load i32, ptr %8, align 4
  %82 = add i32 %81, 2
  store i32 %82, ptr %8, align 4
  %83 = load ptr, ptr %9, align 8
  %84 = load i32, ptr @hf_infiniband_NodeInfo_Revision, align 4
  %85 = load ptr, ptr %6, align 8
  %86 = load i32, ptr %8, align 4
  %87 = call ptr @proto_tree_add_item(ptr noundef %83, i32 noundef %84, ptr noundef %85, i32 noundef %86, i32 noundef 4, i32 noundef 0)
  %88 = load i32, ptr %8, align 4
  %89 = add i32 %88, 4
  store i32 %89, ptr %8, align 4
  %90 = load ptr, ptr %9, align 8
  %91 = load i32, ptr @hf_infiniband_NodeInfo_LocalPortNum, align 4
  %92 = load ptr, ptr %6, align 8
  %93 = load i32, ptr %8, align 4
  %94 = call ptr @proto_tree_add_item(ptr noundef %90, i32 noundef %91, ptr noundef %92, i32 noundef %93, i32 noundef 1, i32 noundef 0)
  %95 = load i32, ptr %8, align 4
  %96 = add i32 %95, 1
  store i32 %96, ptr %8, align 4
  %97 = load ptr, ptr %9, align 8
  %98 = load i32, ptr @hf_infiniband_NodeInfo_VendorID, align 4
  %99 = load ptr, ptr %6, align 8
  %100 = load i32, ptr %8, align 4
  %101 = call ptr @proto_tree_add_item(ptr noundef %97, i32 noundef %98, ptr noundef %99, i32 noundef %100, i32 noundef 3, i32 noundef 0)
  %102 = load i32, ptr %8, align 4
  %103 = add i32 %102, 3
  store i32 %103, ptr %8, align 4
  %104 = load i32, ptr %8, align 4
  store i32 %104, ptr %4, align 4
  store i32 1, ptr %10, align 4
  br label %105

105:                                              ; preds = %18, %15
  call void @llvm.lifetime.end.p0(i64 8, ptr %9) #18
  call void @llvm.lifetime.end.p0(i64 4, ptr %8) #18
  %106 = load i32, ptr %4, align 4
  ret i32 %106
}