; Function Attrs: null_pointer_is_valid sspstrong uwtable
define internal fastcc void @parse_NodeInfo(ptr noundef %0, ptr noundef %1, i32 %.0.val) unnamed_addr #0 {
  %.not = icmp eq ptr %0, null
  br i1 %.not, label %39, label %3

3:                                                ; preds = %2
  %4 = load i32, ptr @hf_infiniband_NodeInfo_BaseVersion, align 4
  %5 = tail call ptr @proto_tree_add_item(ptr noundef nonnull %0, i32 noundef %4, ptr noundef %1, i32 noundef %.0.val, i32 noundef 1, i32 noundef 0)
  %6 = add i32 %.0.val, 1
  %7 = load i32, ptr @hf_infiniband_NodeInfo_ClassVersion, align 4
  %8 = tail call ptr @proto_tree_add_item(ptr noundef nonnull %0, i32 noundef %7, ptr noundef %1, i32 noundef %6, i32 noundef 1, i32 noundef 0)
  %9 = add i32 %.0.val, 2
  %10 = load i32, ptr @hf_infiniband_NodeInfo_NodeType, align 4
  %11 = tail call ptr @proto_tree_add_item(ptr noundef nonnull %0, i32 noundef %10, ptr noundef %1, i32 noundef %9, i32 noundef 1, i32 noundef 0)
  %12 = add i32 %.0.val, 3
  %13 = load i32, ptr @hf_infiniband_NodeInfo_NumPorts, align 4
  %14 = tail call ptr @proto_tree_add_item(ptr noundef nonnull %0, i32 noundef %13, ptr noundef %1, i32 noundef %12, i32 noundef 1, i32 noundef 0)
  %15 = add i32 %.0.val, 4
  %16 = load i32, ptr @hf_infiniband_NodeInfo_SystemImageGUID, align 4
  %17 = tail call ptr @proto_tree_add_item(ptr noundef nonnull %0, i32 noundef %16, ptr noundef %1, i32 noundef %15, i32 noundef 8, i32 noundef 0)
  %18 = add i32 %.0.val, 12
  %19 = load i32, ptr @hf_infiniband_NodeInfo_NodeGUID, align 4
  %20 = tail call ptr @proto_tree_add_item(ptr noundef nonnull %0, i32 noundef %19, ptr noundef %1, i32 noundef %18, i32 noundef 8, i32 noundef 0)
  %21 = add i32 %.0.val, 20
  %22 = load i32, ptr @hf_infiniband_NodeInfo_PortGUID, align 4
  %23 = tail call ptr @proto_tree_add_item(ptr noundef nonnull %0, i32 noundef %22, ptr noundef %1, i32 noundef %21, i32 noundef 8, i32 noundef 0)
  %24 = add i32 %.0.val, 28
  %25 = load i32, ptr @hf_infiniband_NodeInfo_PartitionCap, align 4
  %26 = tail call ptr @proto_tree_add_item(ptr noundef nonnull %0, i32 noundef %25, ptr noundef %1, i32 noundef %24, i32 noundef 2, i32 noundef 0)
  %27 = add i32 %.0.val, 30
  %28 = load i32, ptr @hf_infiniband_NodeInfo_DeviceID, align 4
  %29 = tail call ptr @proto_tree_add_item(ptr noundef nonnull %0, i32 noundef %28, ptr noundef %1, i32 noundef %27, i32 noundef 2, i32 noundef 0)
  %30 = add i32 %.0.val, 32
  %31 = load i32, ptr @hf_infiniband_NodeInfo_Revision, align 4
  %32 = tail call ptr @proto_tree_add_item(ptr noundef nonnull %0, i32 noundef %31, ptr noundef %1, i32 noundef %30, i32 noundef 4, i32 noundef 0)
  %33 = add i32 %.0.val, 36
  %34 = load i32, ptr @hf_infiniband_NodeInfo_LocalPortNum, align 4
  %35 = tail call ptr @proto_tree_add_item(ptr noundef nonnull %0, i32 noundef %34, ptr noundef %1, i32 noundef %33, i32 noundef 1, i32 noundef 0)
  %36 = add i32 %.0.val, 37
  %37 = load i32, ptr @hf_infiniband_NodeInfo_VendorID, align 4
  %38 = tail call ptr @proto_tree_add_item(ptr noundef nonnull %0, i32 noundef %37, ptr noundef %1, i32 noundef %36, i32 noundef 3, i32 noundef 0)
  br label %39

39:                                               ; preds = %2, %3
  ret void
}